; Function Attrs: null_pointer_is_valid sspstrong uwtable
define internal void @uat_esp_sa_records_protocol_set_cb(ptr noundef writeonly captures(none) initializes((0, 1)) %0, ptr noundef %1, i32 noundef %2, ptr noundef readonly captures(none) %3, ptr readnone captures(none) %4) #0 {
  %6 = zext i32 %2 to i64
  %7 = tail call noalias ptr @g_strndup(ptr noundef %1, i64 noundef %6)
  store i8 1, ptr %0, align 8
  %8 = getelementptr inbounds nuw i8, ptr %3, i64 8
  %9 = load ptr, ptr %8, align 8
  %.not15 = icmp eq ptr %9, null
  br i1 %.not15, label %._crit_edge, label %.lr.ph.preheader

.lr.ph.preheader:                                 ; preds = %5
  %10 = tail call i32 @g_str_equal(ptr noundef nonnull %9, ptr noundef %7)
  %.not1320 = icmp eq i32 %10, 0
  br i1 %.not1320, label %.lr.ph22, label %.lr.ph._crit_edge

.lr.ph22:                                         ; preds = %.lr.ph.preheader, %.lr.ph
  %.01621 = phi i32 [ %11, %.lr.ph ], [ 0, %.lr.ph.preheader ]
  %11 = add i32 %.01621, 1
  %12 = zext i32 %11 to i64
  %13 = getelementptr %struct._value_string, ptr %3, i64 %12
  %14 = getelementptr inbounds nuw i8, ptr %13, i64 8
  %15 = load ptr, ptr %14, align 8
  %.not = icmp eq ptr %15, null
  br i1 %.not, label %._crit_edge, label %.lr.ph, !llvm.loop !8

.lr.ph:                                           ; preds = %.lr.ph22
  %16 = tail call i32 @g_str_equal(ptr noundef nonnull %15, ptr noundef %7)
  %.not13 = icmp eq i32 %16, 0
  br i1 %.not13, label %.lr.ph22, label %.lr.ph._crit_edge, !llvm.loop !8

.lr.ph._crit_edge:                                ; preds = %.lr.ph, %.lr.ph.preheader
  %.lcssa = phi ptr [ %3, %.lr.ph.preheader ], [ %13, %.lr.ph ]
  %17 = load i32, ptr %.lcssa, align 8
  %18 = trunc i32 %17 to i8
  store i8 %18, ptr %0, align 8
  br label %._crit_edge

._crit_edge:                                      ; preds = %.lr.ph22, %5, %.lr.ph._crit_edge
  tail call void @g_free(ptr noundef %7)
  ret void
}